; ModuleID = '24/2577.c'
source_filename = "24/2577.c"
target datalayout = "e-m:e-p270:32:32-p271:32:32-p272:64:64-i64:64-f80:128-n8:16:32:64-S128"
target triple = "x86_64-pc-linux-gnu"

@.str = private unnamed_addr constant [3 x i8] c"%d\00", align 1
@.str.1 = private unnamed_addr constant [3 x i8] c"%s\00", align 1
@.str.2 = private unnamed_addr constant [4 x i8] c"%s\0A\00", align 1

; Function Attrs: noinline nounwind uwtable
define dso_local i32 @main() #0 {
  %1 = alloca i32, align 4
  %2 = alloca i32, align 4
  %3 = alloca i32, align 4
  %4 = alloca [200 x i32], align 16
  %5 = alloca i32, align 4
  %6 = alloca i32, align 4
  %7 = alloca i32, align 4
  %8 = alloca i32, align 4
  %9 = alloca [10 x i8], align 1
  %10 = alloca [200 x [200 x i8]], align 16
  store i32 0, i32* %1, align 4
  %11 = bitcast [200 x i32]* %4 to i8*
  call void @llvm.memset.p0i8.i64(i8* align 16 %11, i8 0, i64 800, i1 false)
  store i32 0, i32* %5, align 4
  store i32 0, i32* %6, align 4
  store i32 0, i32* %7, align 4
  store i32 10, i32* %8, align 4
  %12 = call i32 (i8*, ...) @__isoc99_scanf(i8* getelementptr inbounds ([3 x i8], [3 x i8]* @.str, i64 0, i64 0), i32* %3)
  %13 = getelementptr inbounds [10 x i8], [10 x i8]* %9, i64 0, i64 0
  %14 = call i32 (i8*, ...) bitcast (i32 (...)* @gets to i32 (i8*, ...)*)(i8* %13)
  store i32 0, i32* %5, align 4
  br label %15

15:                                               ; preds = %24, %0
  %16 = load i32, i32* %5, align 4
  %17 = load i32, i32* %3, align 4
  %18 = icmp slt i32 %16, %17
  br i1 %18, label %19, label %27

19:                                               ; preds = %15
  %20 = load i32, i32* %5, align 4
  %21 = sext i32 %20 to i64
  %22 = getelementptr inbounds [200 x [200 x i8]], [200 x [200 x i8]]* %10, i64 0, i64 %21
  %23 = call i32 (i8*, ...) @__isoc99_scanf(i8* getelementptr inbounds ([3 x i8], [3 x i8]* @.str.1, i64 0, i64 0), [200 x i8]* %22)
  br label %24

24:                                               ; preds = %19
  %25 = load i32, i32* %5, align 4
  %26 = add nsw i32 %25, 1
  store i32 %26, i32* %5, align 4
  br label %15

27:                                               ; preds = %15
  store i32 0, i32* %5, align 4
  br label %28

28:                                               ; preds = %42, %27
  %29 = load i32, i32* %5, align 4
  %30 = load i32, i32* %3, align 4
  %31 = icmp slt i32 %29, %30
  br i1 %31, label %32, label %45

32:                                               ; preds = %28
  %33 = load i32, i32* %5, align 4
  %34 = sext i32 %33 to i64
  %35 = getelementptr inbounds [200 x [200 x i8]], [200 x [200 x i8]]* %10, i64 0, i64 %34
  %36 = getelementptr inbounds [200 x i8], [200 x i8]* %35, i64 0, i64 0
  %37 = call i64 @strlen(i8* %36) #4
  %38 = trunc i64 %37 to i32
  %39 = load i32, i32* %5, align 4
  %40 = sext i32 %39 to i64
  %41 = getelementptr inbounds [200 x i32], [200 x i32]* %4, i64 0, i64 %40
  store i32 %38, i32* %41, align 4
  br label %42

42:                                               ; preds = %32
  %43 = load i32, i32* %5, align 4
  %44 = add nsw i32 %43, 1
  store i32 %44, i32* %5, align 4
  br label %28

45:                                               ; preds = %28
  store i32 0, i32* %5, align 4
  br label %46

46:                                               ; preds = %63, %45
  %47 = load i32, i32* %5, align 4
  %48 = load i32, i32* %3, align 4
  %49 = icmp slt i32 %47, %48
  br i1 %49, label %50, label %66

50:                                               ; preds = %46
  %51 = load i32, i32* %7, align 4
  %52 = load i32, i32* %5, align 4
  %53 = sext i32 %52 to i64
  %54 = getelementptr inbounds [200 x i32], [200 x i32]* %4, i64 0, i64 %53
  %55 = load i32, i32* %54, align 4
  %56 = icmp slt i32 %51, %55
  br i1 %56, label %57, label %62

57:                                               ; preds = %50
  %58 = load i32, i32* %5, align 4
  %59 = sext i32 %58 to i64
  %60 = getelementptr inbounds [200 x i32], [200 x i32]* %4, i64 0, i64 %59
  %61 = load i32, i32* %60, align 4
  store i32 %61, i32* %7, align 4
  br label %62

62:                                               ; preds = %57, %50
  br label %63

63:                                               ; preds = %62
  %64 = load i32, i32* %5, align 4
  %65 = add nsw i32 %64, 1
  store i32 %65, i32* %5, align 4
  br label %46

66:                                               ; preds = %46
  store i32 0, i32* %5, align 4
  br label %67

67:                                               ; preds = %84, %66
  %68 = load i32, i32* %5, align 4
  %69 = load i32, i32* %3, align 4
  %70 = icmp slt i32 %68, %69
  br i1 %70, label %71, label %87

71:                                               ; preds = %67
  %72 = load i32, i32* %8, align 4
  %73 = load i32, i32* %5, align 4
  %74 = sext i32 %73 to i64
  %75 = getelementptr inbounds [200 x i32], [200 x i32]* %4, i64 0, i64 %74
  %76 = load i32, i32* %75, align 4
  %77 = icmp sgt i32 %72, %76
  br i1 %77, label %78, label %83

78:                                               ; preds = %71
  %79 = load i32, i32* %5, align 4
  %80 = sext i32 %79 to i64
  %81 = getelementptr inbounds [200 x i32], [200 x i32]* %4, i64 0, i64 %80
  %82 = load i32, i32* %81, align 4
  store i32 %82, i32* %8, align 4
  br label %83

83:                                               ; preds = %78, %71
  br label %84

84:                                               ; preds = %83
  %85 = load i32, i32* %5, align 4
  %86 = add nsw i32 %85, 1
  store i32 %86, i32* %5, align 4
  br label %67

87:                                               ; preds = %67
  store i32 0, i32* %5, align 4
  br label %88

88:                                               ; preds = %106, %87
  %89 = load i32, i32* %5, align 4
  %90 = load i32, i32* %3, align 4
  %91 = icmp slt i32 %89, %90
  br i1 %91, label %92, label %109

92:                                               ; preds = %88
  %93 = load i32, i32* %5, align 4
  %94 = sext i32 %93 to i64
  %95 = getelementptr inbounds [200 x i32], [200 x i32]* %4, i64 0, i64 %94
  %96 = load i32, i32* %95, align 4
  %97 = load i32, i32* %7, align 4
  %98 = icmp eq i32 %96, %97
  br i1 %98, label %99, label %105

99:                                               ; preds = %92
  %100 = load i32, i32* %5, align 4
  %101 = sext i32 %100 to i64
  %102 = getelementptr inbounds [200 x [200 x i8]], [200 x [200 x i8]]* %10, i64 0, i64 %101
  %103 = getelementptr inbounds [200 x i8], [200 x i8]* %102, i64 0, i64 0
  %104 = call i32 (i8*, ...) @printf(i8* getelementptr inbounds ([4 x i8], [4 x i8]* @.str.2, i64 0, i64 0), i8* %103)
  br label %109

105:                                              ; preds = %92
  br label %106

106:                                              ; preds = %105
  %107 = load i32, i32* %5, align 4
  %108 = add nsw i32 %107, 1
  store i32 %108, i32* %5, align 4
  br label %88

109:                                              ; preds = %99, %88
  store i32 0, i32* %5, align 4
  br label %110

110:                                              ; preds = %128, %109
  %111 = load i32, i32* %5, align 4
  %112 = load i32, i32* %3, align 4
  %113 = icmp slt i32 %111, %112
  br i1 %113, label %114, label %131

114:                                              ; preds = %110
  %115 = load i32, i32* %5, align 4
  %116 = sext i32 %115 to i64
  %117 = getelementptr inbounds [200 x i32], [200 x i32]* %4, i64 0, i64 %116
  %118 = load i32, i32* %117, align 4
  %119 = load i32, i32* %8, align 4
  %120 = icmp eq i32 %118, %119
  br i1 %120, label %121, label %127

121:                                              ; preds = %114
  %122 = load i32, i32* %5, align 4
  %123 = sext i32 %122 to i64
  %124 = getelementptr inbounds [200 x [200 x i8]], [200 x [200 x i8]]* %10, i64 0, i64 %123
  %125 = getelementptr inbounds [200 x i8], [200 x i8]* %124, i64 0, i64 0
  %126 = call i32 (i8*, ...) @printf(i8* getelementptr inbounds ([3 x i8], [3 x i8]* @.str.1, i64 0, i64 0), i8* %125)
  br label %131

127:                                              ; preds = %114
  br label %128

128:                                              ; preds = %127
  %129 = load i32, i32* %5, align 4
  %130 = add nsw i32 %129, 1
  store i32 %130, i32* %5, align 4
  br label %110

131:                                              ; preds = %121, %110
  ret i32 0
}

; Function Attrs: argmemonly nounwind willreturn
declare void @llvm.memset.p0i8.i64(i8* nocapture writeonly, i8, i64, i1 immarg) #1

declare dso_local i32 @__isoc99_scanf(i8*, ...) #2

declare dso_local i32 @gets(...) #2

; Function Attrs: nounwind readonly
declare dso_local i64 @strlen(i8*) #3

declare dso_local i32 @printf(i8*, ...) #2


!llvm.module.flags = !{!0}
!llvm.ident = !{!1}

!0 = !{i32 1, !"wchar_size", i32 4}
!1 = !{!"clang version 10.0.0-4ubuntu1 "}
